((lp0
(S'the'
p1
I889856
tp2
a(S'and'
p3
I485627
tp4
a(S'of'
p5
I431450
tp6
a(S'to'
p7
I427720
tp8
a(S'a'
p9
I399409
tp10
a(S'in'
p11
I259291
tp12
a(S'it'
p13
I239418
tp14
a(S'i'
p15
I236572
tp16
a(S'that'
p17
I222074
tp18
a(S'he'
p19
I220456
tp20
a(S'was'
p21
I211594
tp22
a(S'you'
p23
I206593
tp24
a(S'his'
p25
I156072
tp26
a(S'said'
p27
I149278
tp28
a(S'with'
p29
I125911
tp30
a(S'had'
p31
I118668
tp32
a(S'as'
p33
I115586
tp34
a(S'for'
p35
I113784
tp36
a(S'on'
p37
I109979
tp38
a(S'is'
p39
I107503
tp40
a(S'at'
p41
I107087
tp42
a(S'be'
p43
I101253
tp44
a(S'but'
p45
I98148
tp46
a(S'not'
p47
I93435
tp48
a(S'have'
p49
I93366
tp50
a(S'her'
p51
I80103
tp52
a(S'she'
p53
I78034
tp54
a(S'they'
p55
I75787
tp56
a(S'him'
p57
I73847
tp58
a(S'all'
p59
I72923
tp60
a(S'this'
p61
I72693
tp62
a(S'there'
p63
I65873
tp64
a(S'were'
p65
I64695
tp66
a(S'one'
p67
I61595
tp68
a(S'what'
p69
I60868
tp70
a(S'my'
p71
I60840
tp72
a(S'no'
p73
I60470
tp74
a(S'if'
p75
I60200
tp76
a(S'me'
p77
I58884
tp78
a(S'we'
p79
I58875
tp80
a(S'by'
p81
I57698
tp82
a(S'so'
p83
I57488
tp84
a(S'would'
p85
I54930
tp86
a(S'from'
p87
I54007
tp88
a(S'out'
p89
I54001
tp90
a(S'are'
p91
I50549
tp92
a(S'or'
p93
I49431
tp94
a(S'up'
p95
I49429
tp96
a(S'an'
p97
I49335
tp98
a(S'do'
p99
I48278
tp100
a(S'been'
p101
I46620
tp102
a(S'them'
p103
I44406
tp104
a(S'when'
p105
I43396
tp106
a(S'mr'
p107
I42038
tp108
a(S'which'
p109
I41217
tp110
a(S'could'
p111
I41067
tp112
a(S'then'
p113
I40577
tp114
a(S'your'
p115
I39065
tp116
a(S'about'
p117
I38337
tp118
a(S'its'
p119
I37603
tp120
a(S'into'
p121
I36859
tp122
a(S'who'
p123
I36598
tp124
a(S'know'
p125
I36480
tp126
a(S'will'
p127
I36117
tp128
a(S'like'
p129
I35150
tp130
a(S'now'
p131
I34305
tp132
a(S'very'
p133
I33608
tp134
a(S'more'
p135
I33071
tp136
a(S'time'
p137
I32512
tp138
a(S'can'
p139
I31532
tp140
a(S'their'
p141
I31287
tp142
a(S'some'
p143
I29558
tp144
a(S'any'
p145
I28837
tp146
a(S'down'
p147
I28526
tp148
a(S'just'
p149
I28451
tp150
a(S'little'
p151
I27923
tp152
a(S'well'
p153
I26585
tp154
a(S'did'
p155
I26514
tp156
a(S'see'
p157
I26326
tp158
a(S'man'
p159
I25481
tp160
a(S'back'
p161
I25111
tp162
a(S'than'
p163
I24718
tp164
a(S'other'
p165
I24620
tp166
a(S'only'
p167
I24483
tp168
a(S'how'
p169
I24387
tp170
a(S'here'
p171
I24240
tp172
a(S'think'
p173
I23813
tp174
a(S'way'
p175
I23511
tp176
a(S'over'
p177
I22135
tp178
a(S'even'
p179
I21694
tp180
a(S'has'
p181
I21620
tp182
a(S'good'
p183
I21461
tp184
a(S'never'
p185
I21160
tp186
a(S'right'
p187
I20984
tp188
a(S'looked'
p189
I20670
tp190
a(S'two'
p191
I20437
tp192
a(S'old'
p193
I20332
tp194
a(S'say'
p195
I20152
tp196
a(S'get'
p197
I19970
tp198
a(S'too'
p199
I19906
tp200
a(lp201
((g5
g1
tp202
I92959
tp203
a((S'in'
p204
S'the'
p205
tp206
I69961
tp207
a((S'to'
p208
S'the'
p209
tp210
I41053
tp211
a((S'it'
p212
S'was'
p213
tp214
I38226
tp215
a((S'on'
p216
S'the'
p217
tp218
I34599
tp219
a((S'to'
p220
g43
tp221
I32504
tp222
a((g41
S'the'
p223
tp224
I29881
tp225
a((S'and'
p226
S'the'
p227
tp228
I27180
tp229
a((S'in'
p230
S'a'
p231
tp232
I24961
tp233
a((S'he'
p234
S'was'
p235
tp236
I23381
tp237
a((S'was'
p238
S'a'
p239
tp240
I22545
tp241
a((S'he'
p242
S'had'
p243
tp244
I20741
tp245
a((S'with'
p246
S'a'
p247
tp248
I20194
tp249
a((S'of'
p250
S'a'
p251
tp252
I20172
tp253
a((S'there'
p254
S'was'
p255
tp256
I19650
tp257
a((S'he'
p258
g27
tp259
I19418
tp260
a((S'for'
p261
S'the'
p262
tp263
I18317
tp264
a((S'with'
p265
S'the'
p266
tp267
I18282
tp268
a((S'had'
p269
S'been'
p270
tp271
I17185
tp272
a((S'of'
p273
S'his'
p274
tp275
I17014
tp276
a((S'out'
p277
S'of'
p278
tp279
I16400
tp280
a((g13
S'is'
p281
tp282
I16394
tp283
a((S'from'
p284
S'the'
p285
tp286
I16008
tp287
a((g15
g49
tp288
I15002
tp289
a((S'by'
p290
S'the'
p291
tp292
I14296
tp293
a((S'i'
p294
S'am'
p295
tp296
I13999
tp297
a((S'in'
p298
S'his'
p299
tp300
I13940
tp301
a((S'for'
p302
S'a'
p303
tp304
I13791
tp305
a((S'into'
p306
S'the'
p307
tp308
I13654
tp309
a((S'that'
p310
S'the'
p311
tp312
I13483
tp313
a((S'said'
p314
S'the'
p315
tp316
I13049
tp317
a((S'that'
p318
S'he'
p319
tp320
I13035
tp321
a((S'and'
p322
S'i'
p323
tp324
I12478
tp325
a((S'have'
p326
S'been'
p327
tp328
I11907
tp329
a((S'all'
p330
S'the'
p331
tp332
I11631
tp333
a((S'if'
p334
S'you'
p335
tp336
I11607
tp337
a((S'and'
p338
S'then'
p339
tp340
I11583
tp341
a((S'do'
p342
S'you'
p343
tp344
I11464
tp345
a((S'one'
p346
S'of'
p347
tp348
I11444
tp349
a((S'and'
p350
S'a'
p351
tp352
I11251
tp353
a((S'would'
p354
S'be'
p355
tp356
I10935
tp357
a((S'that'
p358
S'i'
p359
tp360
I10716
tp361
a((S'they'
p362
g65
tp363
I10676
tp364
a((g213
S'the'
p365
tp366
I10664
tp367
a((S'to'
p368
S'do'
p369
tp370
I10635
tp371
a((S'i'
p372
S'was'
p373
tp374
I10616
tp375
a((S'a'
p376
S'little'
p377
tp378
I9957
tp379
a((g23
S'know'
p380
tp381
I9790
tp382
a((S'the'
p383
S'other'
p384
tp385
I9750
tp386
a((S'as'
p387
S'he'
p388
tp389
I9633
tp390
a((g39
g9
tp391
I9620
tp392
a((S'of'
p393
S'course'
p394
tp395
I9498
tp396
a((S'as'
p397
S'a'
p398
tp399
I9429
tp400
a((S'going'
p401
S'to'
p402
tp403
I9263
tp404
a((S'the'
p405
S'same'
p406
tp407
I9204
tp408
a((S'the'
p409
S'first'
p410
tp411
I8921
tp412
a((S'and'
p413
S'he'
p414
tp415
I8607
tp416
a((S'would'
p417
g326
tp418
I8586
tp419
a((S'as'
p420
S'the'
p421
tp422
I8430
tp423
a((g53
S'was'
p424
tp425
I8398
tp426
a((S'to'
p427
S'have'
p428
tp429
I8298
tp430
a((S'have'
p431
S'to'
p432
tp433
I8061
tp434
a((S'you'
p435
S'are'
p436
tp437
I8039
tp438
a((S'to'
p439
S'a'
p440
tp441
I7873
tp442
a((S'of'
p443
S'it'
p444
tp445
I7865
tp446
a((S'that'
p447
S'was'
p448
tp449
I7816
tp450
a((S'to'
p451
g77
tp452
I7807
tp453
a((S'to'
p454
g157
tp455
I7739
tp456
a((S'you'
p457
S'have'
p458
tp459
I7736
tp460
a((S'but'
p461
S'i'
p462
tp463
I7693
tp464
a((S'and'
p465
S'that'
p466
tp467
I7675
tp468
a((g129
S'a'
p469
tp470
I7636
tp471
a((S'as'
p472
S'if'
p473
tp474
I7585
tp475
a((S'i'
p476
S'had'
p477
tp478
I7524
tp479
a((S'she'
p480
S'said'
p481
tp482
I7495
tp483
a((g19
S'could'
p484
tp485
I7403
tp486
a((S'that'
p487
S'it'
p488
tp489
I7362
tp490
a((S'i'
p491
S'think'
p492
tp493
I7332
tp494
a((S'the'
p495
S'door'
p496
tp497
I7304
tp498
a((S'through'
p499
S'the'
p500
tp501
I7275
tp502
a((g235
S'not'
p503
tp504
I7243
tp505
a((S'a'
p506
S'few'
p507
tp508
I7168
tp509
a((S'to'
p510
S'his'
p511
tp512
I7149
tp513
a((g155
S'not'
p514
tp515
I7100
tp516
a((S'of'
p517
S'them'
p518
tp519
I7096
tp520
a((S'be'
p521
S'a'
p522
tp523
I7077
tp524
a((S'she'
p525
S'had'
p526
tp527
I6969
tp528
a((S'i'
p529
S'know'
p530
tp531
I6888
tp532
a((S'his'
p533
S'head'
p534
tp535
I6862
tp536
a((S'the'
p537
S'old'
p538
tp539
I6827
tp540
a((g127
S'be'
p541
tp542
I6756
tp543
a((S'when'
p544
S'he'
p545
tp546
I6681
tp547
a((S'it'
p548
S'would'
p549
tp550
I6657
tp551
a((S'is'
p552
S'the'
p553
tp554
I6604
tp555
a((g63
g39
tp556
I6569
tp557
a((S'if'
p558
S'i'
p559
tp560
I6532
tp561
a((S'with'
p562
S'his'
p563
tp564
I6514
tp565
a((S'if'
p566
S'he'
p567
tp568
I6480
tp569
a((S'to'
p570
S'make'
p571
tp572
I6370
tp573
a((S'to'
p574
S'get'
p575
tp576
I6361
tp577
atp578
.